; Function Attrs: nounwind uwtable
define range(i32 -1, 1) i32 @H5HF__space_size(ptr noundef %0, ptr noundef %1) local_unnamed_addr #0 {
  %3 = alloca [4 x ptr], align 16
  %4 = getelementptr inbounds i8, ptr %0, i64 640
  %5 = load ptr, ptr %4, align 8
  %.not = icmp eq ptr %5, null
  br i1 %.not, label %6, label %.thread

6:                                                ; preds = %2
  call void @llvm.lifetime.start.p0(i64 32, ptr nonnull %3)
  call void @llvm.memcpy.p0.p0.i64(ptr noundef nonnull align 16 dereferenceable(32) %3, ptr noundef nonnull align 16 dereferenceable(32) @__const.H5HF__space_start.classes, i64 32, i1 false)
  %7 = getelementptr inbounds i8, ptr %0, i64 384
  %8 = load i64, ptr %7, align 8
  %.not.i = icmp eq i64 %8, -1
  br i1 %.not.i, label %28, label %9

9:                                                ; preds = %6
  %10 = getelementptr inbounds i8, ptr %0, i64 600
  %11 = load ptr, ptr %10, align 8
  %12 = call ptr @H5FS_open(ptr noundef %11, i64 noundef %8, i16 noundef zeroext 4, ptr noundef nonnull %3, ptr noundef nonnull %0, i64 noundef 1, i64 noundef 1) #4
  store ptr %12, ptr %4, align 8
  %13 = icmp eq ptr %12, null
  br i1 %13, label %14, label %.thread12

.thread12:                                        ; preds = %9
  call void @llvm.lifetime.end.p0(i64 32, ptr nonnull %3)
  br label %.thread

14:                                               ; preds = %9
  %15 = load i64, ptr @H5E_HEAP_g, align 8
  %16 = load i64, ptr @H5E_CANTINIT_g, align 8
  %17 = call i32 (ptr, ptr, i32, i64, i64, ptr, ...) @H5E_printf_stack(ptr noundef nonnull @.str, ptr noundef nonnull @__func__.H5HF__space_start, i32 noundef 101, i64 noundef %15, i64 noundef %16, ptr noundef nonnull @.str.1) #4
  call void @llvm.lifetime.end.p0(i64 32, ptr nonnull %3)
  %18 = load i64, ptr @H5E_HEAP_g, align 8
  %19 = load i64, ptr @H5E_CANTINIT_g, align 8
  %20 = call i32 (ptr, ptr, i32, i64, i64, ptr, ...) @H5E_printf_stack(ptr noundef nonnull @.str, ptr noundef nonnull @__func__.H5HF__space_size, i32 noundef 398, i64 noundef %18, i64 noundef %19, ptr noundef nonnull @.str.2) #4
  br label %29

.thread:                                          ; preds = %2, %.thread12
  %21 = phi ptr [ %12, %.thread12 ], [ %5, %2 ]
  %22 = call i32 @H5FS_size(ptr noundef nonnull %21, ptr noundef %1) #4
  %23 = icmp slt i32 %22, 0
  br i1 %23, label %24, label %29

24:                                               ; preds = %.thread
  %25 = load i64, ptr @H5E_FSPACE_g, align 8
  %26 = load i64, ptr @H5E_CANTGET_g, align 8
  %27 = call i32 (ptr, ptr, i32, i64, i64, ptr, ...) @H5E_printf_stack(ptr noundef nonnull @.str, ptr noundef nonnull @__func__.H5HF__space_size, i32 noundef 403, i64 noundef %25, i64 noundef %26, ptr noundef nonnull @.str.7) #4
  br label %29

28:                                               ; preds = %6
  call void @llvm.lifetime.end.p0(i64 32, ptr nonnull %3)
  store i64 0, ptr %1, align 8
  br label %29

29:                                               ; preds = %28, %.thread, %24, %14
  %.0 = phi i32 [ -1, %24 ], [ 0, %.thread ], [ 0, %28 ], [ -1, %14 ]
  ret i32 %.0
}